; Function Attrs: nounwind uwtable
define internal fastcc range(i32 -1, 1) i32 @H5RS__prepare_for_append(ptr noundef captures(none) %0) unnamed_addr #0 {
  %2 = load i8, ptr @H5RS_init_g, align 1, !tbaa !3, !range !7, !noundef !8
  %3 = trunc nuw i8 %2 to i1
  %4 = load i8, ptr @H5_libterm_g, align 1, !range !7
  %5 = trunc nuw i8 %4 to i1
  %6 = xor i1 %5, true
  %7 = select i1 %3, i1 true, i1 %6
  br i1 %7, label %8, label %49, !prof !9

8:                                                ; preds = %1
  %9 = load ptr, ptr %0, align 8, !tbaa !20
  %10 = icmp eq ptr %9, null
  br i1 %10, label %11, label %22

11:                                               ; preds = %8
  %12 = getelementptr inbounds nuw i8, ptr %0, i64 24
  store i64 256, ptr %12, align 8, !tbaa !15
  %13 = tail call noalias ptr @H5FL_blk_malloc(ptr noundef nonnull @H5_str_buf_blk_free_list, i64 noundef 256) #11
  store ptr %13, ptr %0, align 8, !tbaa !20
  %14 = icmp eq ptr %13, null
  br i1 %14, label %15, label %19

15:                                               ; preds = %11
  %16 = load i64, ptr @H5E_RS_g, align 8, !tbaa !11
  %17 = load i64, ptr @H5E_CANTALLOC_g, align 8, !tbaa !11
  %18 = tail call i32 (ptr, ptr, i32, i64, i64, ptr, ...) @H5E_printf_stack(ptr noundef nonnull @.str, ptr noundef nonnull @__func__.H5RS__prepare_for_append, i32 noundef 186, i64 noundef %16, i64 noundef %17, ptr noundef nonnull @.str.1) #11
  br label %49

19:                                               ; preds = %11
  %20 = getelementptr inbounds nuw i8, ptr %0, i64 8
  store ptr %13, ptr %20, align 8, !tbaa !21
  store i8 0, ptr %13, align 1, !tbaa !22
  %21 = getelementptr inbounds nuw i8, ptr %0, i64 16
  store i64 0, ptr %21, align 8, !tbaa !23
  br label %49

22:                                               ; preds = %8
  %23 = getelementptr inbounds nuw i8, ptr %0, i64 32
  %24 = load i8, ptr %23, align 8, !tbaa !26, !range !7, !noundef !8
  %25 = trunc nuw i8 %24 to i1
  br i1 %25, label %26, label %49

26:                                               ; preds = %22
  %27 = tail call i64 @strlen(ptr noundef nonnull readonly dereferenceable(1) %9) #12
  %28 = add i64 %27, 1
  br label %29

29:                                               ; preds = %29, %26
  %storemerge.i = phi i64 [ 256, %26 ], [ %31, %29 ]
  %30 = icmp ugt i64 %28, %storemerge.i
  %31 = shl i64 %storemerge.i, 1
  br i1 %30, label %29, label %32, !llvm.loop !13

32:                                               ; preds = %29
  %33 = getelementptr inbounds nuw i8, ptr %0, i64 24
  store i64 %storemerge.i, ptr %33, align 8, !tbaa !15
  %34 = tail call noalias ptr @H5FL_blk_malloc(ptr noundef nonnull @H5_str_buf_blk_free_list, i64 noundef %storemerge.i) #11
  store ptr %34, ptr %0, align 8, !tbaa !20
  %35 = icmp eq ptr %34, null
  br i1 %35, label %38, label %36

36:                                               ; preds = %32
  %.not36.i = icmp eq i64 %27, 0
  br i1 %.not36.i, label %45, label %37

37:                                               ; preds = %36
  tail call void @llvm.memcpy.p0.p0.i64(ptr nonnull align 1 %34, ptr nonnull readonly align 1 %9, i64 %27, i1 false)
  br label %45

38:                                               ; preds = %32
  %39 = load i64, ptr @H5E_RS_g, align 8, !tbaa !11
  %40 = load i64, ptr @H5E_CANTALLOC_g, align 8, !tbaa !11
  %41 = tail call i32 (ptr, ptr, i32, i64, i64, ptr, ...) @H5E_printf_stack(ptr noundef nonnull @.str, ptr noundef nonnull @__func__.H5RS__xstrdup, i32 noundef 129, i64 noundef %39, i64 noundef %40, ptr noundef nonnull @.str.1) #11
  %42 = load i64, ptr @H5E_RS_g, align 8, !tbaa !11
  %43 = load i64, ptr @H5E_CANTCOPY_g, align 8, !tbaa !11
  %44 = tail call i32 (ptr, ptr, i32, i64, i64, ptr, ...) @H5E_printf_stack(ptr noundef nonnull @.str, ptr noundef nonnull @__func__.H5RS__prepare_for_append, i32 noundef 197, i64 noundef %42, i64 noundef %43, ptr noundef nonnull @.str.2) #11
  br label %49

45:                                               ; preds = %37, %36
  %46 = getelementptr inbounds nuw i8, ptr %34, i64 %27
  %47 = getelementptr inbounds nuw i8, ptr %0, i64 8
  store ptr %46, ptr %47, align 8, !tbaa !21
  store i8 0, ptr %46, align 1, !tbaa !22
  %48 = getelementptr inbounds nuw i8, ptr %0, i64 16
  store i64 %27, ptr %48, align 8, !tbaa !23
  store i8 0, ptr %23, align 8, !tbaa !26
  br label %49

49:                                               ; preds = %15, %38, %22, %45, %19, %1
  %.0 = phi i32 [ -1, %15 ], [ 0, %19 ], [ -1, %38 ], [ 0, %45 ], [ 0, %22 ], [ 0, %1 ]
  ret i32 %.0
}